Certificate:
    Data:
        Version: 3 (0x2)
        Serial Number:
            01:00:00:00:00:00:00:00:5a:0c:1e:b2:95:5e:79:f2
        Signature Algorithm: sha256WithRSAEncryption
        Issuer: DC = qualified-root-ca, CN = InfoNotary TSP Root, C = BG, L = Sofia, O = InfoNotary PLC, OU = Qualified TSP, organizationIdentifier = NTRBG-131276827
        Validity
            Not Before: Jun 28 13:09:07 2017 GMT
            Not After : Jun 28 13:09:07 2037 GMT
        Subject: DC = qualified-root-ca, CN = InfoNotary TSP Root, C = BG, L = Sofia, O = InfoNotary PLC, OU = Qualified TSP, organizationIdentifier = NTRBG-131276827
        Subject Public Key Info:
            Public Key Algorithm: rsaEncryption
                RSA Public-Key: (4096 bit)
                Modulus:
                    00:8a:63:eb:62:bc:df:7a:f3:15:9b:39:b7:64:0b:
                    06:4f:d1:dd:94:a4:95:40:6f:3a:4c:6c:bb:4b:c8:
                    ef:68:f4:48:43:1f:14:11:51:2e:d5:c3:1b:fd:0e:
                    2c:a4:11:b8:a9:2a:6d:f5:ee:2f:7c:40:79:8c:a0:
                    a2:2f:db:82:cf:09:aa:8d:15:58:b9:1e:69:59:57:
                    51:8a:b1:b0:3c:bd:96:04:1d:5b:b2:7d:d1:81:65:
                    a0:b1:83:e6:34:34:3e:8c:93:06:8e:e8:9e:89:e9:
                    1a:61:47:c2:f1:2e:2b:32:32:24:3c:d4:f3:c5:0e:
                    67:d5:4c:34:4f:dc:a6:5c:d8:f1:39:6c:a6:c9:98:
                    a4:39:e7:d9:83:4b:d0:19:f6:f7:88:f2:5a:a7:32:
                    8a:37:b6:45:c2:4b:c7:fb:00:56:5c:88:c8:95:48:
                    71:d4:4d:a7:cb:d0:7a:ef:6d:54:01:92:be:54:88:
                    12:d3:b7:4d:8d:de:b0:94:c4:c1:31:bf:7a:f1:97:
                    76:7a:bf:0a:13:ac:db:ec:01:94:87:35:c4:20:9a:
                    b6:45:a6:0c:b6:9d:2c:8d:39:b7:11:70:7e:15:d6:
                    f1:60:2a:22:f4:d7:d6:c5:29:b5:f8:b3:7e:e8:44:
                    89:4f:dc:7e:f8:4d:ab:8e:be:d7:71:c0:89:c6:84:
                    88:b2:15:59:fc:d3:1d:87:2f:57:57:4a:78:60:a6:
                    e7:63:3a:4e:dd:eb:cb:75:0d:a8:3b:f6:f3:bb:e0:
                    cf:d4:21:0c:b3:c3:af:b1:02:46:32:90:1e:a7:25:
                    f5:7b:a4:08:f2:33:73:15:29:b4:96:5b:40:71:a9:
                    2d:1c:4d:f1:41:2f:dc:62:ea:e4:4e:52:af:44:8d:
                    fa:00:d1:b3:7c:b9:ba:86:f6:b6:ba:6b:11:d4:b4:
                    89:21:bb:84:03:88:10:53:07:b8:0f:c2:e2:1c:ab:
                    d1:98:83:e1:36:d2:13:b9:12:33:5e:f9:47:7e:f8:
                    3c:d1:b8:de:f5:48:44:15:e3:9b:4d:51:83:9d:36:
                    9a:b8:15:b6:83:f8:e8:7b:56:f7:c5:6f:0a:ae:5f:
                    45:b1:e9:cc:85:43:f1:7c:99:a6:f0:32:62:aa:69:
                    1e:fb:f4:27:0c:8f:1a:15:b0:d5:b0:65:a8:b3:68:
                    c3:e6:69:15:1c:94:5e:5e:ea:8a:bb:6a:8e:b9:be:
                    1e:d4:0f:42:f6:e1:91:27:74:92:54:ad:75:48:0f:
                    be:a4:ce:88:cf:33:a9:7a:cf:40:d2:6d:e1:15:9c:
                    25:d2:ac:40:e4:84:fd:53:88:20:94:74:67:9f:ef:
                    45:64:ff:2d:d0:93:85:a1:3a:29:b9:66:8d:c3:1f:
                    6c:45:0d
                Exponent: 65537 (0x10001)
        X509v3 extensions:
            X509v3 Key Usage: critical
                Certificate Sign, CRL Sign
            Subject Information Access: 
                CA Repository - URI:ldap://ldap.infonotary.com/dc=qualified-root-ca,dc=infonotary,dc=com

            X509v3 Certificate Policies: 
                Policy: 1.3.6.1.4.1.22144.3
                  CPS: http://repository.infonotary.com/cps/qualified-tsp.html
                  User Notice:
                    Explicit Text: InfoNotary Qualified TSP Root CA

            X509v3 Basic Constraints: critical
                CA:TRUE
            X509v3 Subject Key Identifier: 
                AD:E1:9F:39:80:70:D9:68:0A:CB:C6:71:0D:46:D8:83:A9:12:94:5D
    Signature Algorithm: sha256WithRSAEncryption
         22:38:e3:8a:58:8f:04:bf:7c:ad:d3:04:15:6c:6c:09:06:67:
         28:73:20:49:88:01:9e:7a:60:66:c8:53:38:8f:9e:b0:0e:92:
         59:4c:00:85:98:5f:c2:80:ad:a5:fd:f6:e3:d4:a6:39:86:05:
         6d:e1:63:9a:3b:88:3f:aa:f7:a2:4c:8e:69:b7:9e:54:62:0f:
         7f:c4:ac:c9:47:9e:6d:ff:ff:f8:07:c1:ef:b8:8b:17:f6:21:
         c0:02:5b:34:00:db:5f:ac:dc:e7:b1:34:10:e5:65:3f:6c:0c:
         7d:34:59:09:c7:be:32:12:67:cb:97:d3:f3:3e:e1:0e:c0:51:
         c2:2c:85:29:42:fc:38:1c:07:54:f6:a1:ad:57:e8:2e:c7:50:
         64:2e:05:9b:a9:4e:3f:92:23:64:f5:ad:a6:3d:7e:03:8c:48:
         b4:68:34:8f:32:dd:f9:85:52:e5:41:26:e8:1f:26:9e:69:ad:
         bf:4b:31:c9:8b:41:ca:94:d2:99:08:2b:70:a1:8e:e9:cc:df:
         b3:e8:2d:8e:7d:85:b6:fb:de:e0:ef:6f:df:73:89:de:1e:26:
         4a:55:8b:56:2f:d8:59:6b:e0:e4:22:4b:fa:2f:24:c6:48:65:
         dc:85:cb:58:2f:87:bc:36:72:0a:d8:f3:03:64:e6:ba:1b:aa:
         9f:68:19:14:68:d5:12:15:45:df:75:38:c1:7b:ff:66:49:9d:
         2c:20:a2:c8:b4:9b:da:c5:bd:ba:ef:68:0a:02:6b:32:1d:f0:
         3e:fc:38:e1:2e:66:7e:6e:62:28:2a:c9:cd:e8:47:c4:9a:59:
         7a:f2:1d:bc:f0:3d:1f:bc:20:f8:92:13:15:5a:7e:b9:fb:3f:
         9e:2d:9e:d0:7b:20:37:6f:ea:fd:19:08:bb:ed:6a:9d:45:af:
         75:12:bf:d1:92:3c:93:b8:5e:11:68:2a:9e:8e:4f:25:d7:6b:
         06:cb:55:6d:70:1b:bf:cd:78:00:11:78:0d:ba:52:57:e9:25:
         46:c3:49:79:19:84:f3:e7:15:63:8e:5c:30:5c:5e:c2:52:07:
         ba:98:7b:28:6e:cd:9b:bb:fd:f1:bf:08:a2:94:c1:05:9e:77:
         98:78:ec:2c:e2:35:7a:b3:fc:a6:84:a4:a3:3b:fb:eb:2e:5f:
         84:cb:67:09:a8:18:0a:69:9c:2d:0c:4c:ec:1a:15:90:14:0e:
         9f:80:04:b1:90:74:20:ca:38:24:f5:98:3e:3a:42:51:27:86:
         60:40:ff:03:12:00:6a:50:fd:18:1e:40:e5:db:a2:1d:cd:e8:
         91:1f:3d:24:8a:ac:a5:4f:2c:8a:30:6a:11:93:66:53:88:ae:
         a6:e7:61:72:8a:7d:b9:57
-----BEGIN CERTIFICATE-----
MIIHGTCCBQGgAwIBAgIQAQAAAAAAAABaDB6ylV558jANBgkqhkiG9w0BAQsFADCB
qTEhMB8GCgmSJomT8ixkARkWEXF1YWxpZmllZC1yb290LWNhMRwwGgYDVQQDDBNJ
bmZvTm90YXJ5IFRTUCBSb290MQswCQYDVQQGDAJCRzEOMAwGA1UEBwwFU29maWEx
FzAVBgNVBAoMDkluZm9Ob3RhcnkgUExDMRYwFAYDVQQLDA1RdWFsaWZpZWQgVFNQ
MRgwFgYDVQRhDA9OVFJCRy0xMzEyNzY4MjcwHhcNMTcwNjI4MTMwOTA3WhcNMzcw
NjI4MTMwOTA3WjCBqTEhMB8GCgmSJomT8ixkARkWEXF1YWxpZmllZC1yb290LWNh
MRwwGgYDVQQDDBNJbmZvTm90YXJ5IFRTUCBSb290MQswCQYDVQQGDAJCRzEOMAwG
A1UEBwwFU29maWExFzAVBgNVBAoMDkluZm9Ob3RhcnkgUExDMRYwFAYDVQQLDA1R
dWFsaWZpZWQgVFNQMRgwFgYDVQRhDA9OVFJCRy0xMzEyNzY4MjcwggIiMA0GCSqG
SIb3DQEBAQUAA4ICDwAwggIKAoICAQCKY+tivN968xWbObdkCwZP0d2UpJVAbzpM
bLtLyO9o9EhDHxQRUS7Vwxv9DiykEbipKm317i98QHmMoKIv24LPCaqNFVi5HmlZ
V1GKsbA8vZYEHVuyfdGBZaCxg+Y0ND6MkwaO6J6J6RphR8LxLisyMiQ81PPFDmfV
TDRP3KZc2PE5bKbJmKQ559mDS9AZ9veI8lqnMoo3tkXCS8f7AFZciMiVSHHUTafL
0HrvbVQBkr5UiBLTt02N3rCUxMExv3rxl3Z6vwoTrNvsAZSHNcQgmrZFpgy2nSyN
ObcRcH4V1vFgKiL019bFKbX4s37oRIlP3H74TauOvtdxwInGhIiyFVn80x2HL1dX
SnhgpudjOk7d68t1Dag79vO74M/UIQyzw6+xAkYykB6nJfV7pAjyM3MVKbSWW0Bx
qS0cTfFBL9xi6uROUq9EjfoA0bN8ubqG9ra6axHUtIkhu4QDiBBTB7gPwuIcq9GY
g+E20hO5EjNe+Ud++DzRuN71SEQV45tNUYOdNpq4FbaD+Oh7VvfFbwquX0Wx6cyF
Q/F8mabwMmKqaR779CcMjxoVsNWwZaizaMPmaRUclF5e6oq7ao65vh7UD0L24ZEn
dJJUrXVID76kzojPM6l6z0DSbeEVnCXSrEDkhP1TiCCUdGef70Vk/y3Qk4WhOim5
Zo3DH2xFDQIDAQABo4IBOTCCATUwDgYDVR0PAQH/BAQDAgEGMGAGCCsGAQUFBwEL
BFQwUjBQBggrBgEFBQcwBYZEbGRhcDovL2xkYXAuaW5mb25vdGFyeS5jb20vZGM9
cXVhbGlmaWVkLXJvb3QtY2EsZGM9aW5mb25vdGFyeSxkYz1jb20wgZAGA1UdIASB
iDCBhTCBggYJKwYBBAGBrQADMHUwQwYIKwYBBQUHAgEWN2h0dHA6Ly9yZXBvc2l0
b3J5LmluZm9ub3RhcnkuY29tL2Nwcy9xdWFsaWZpZWQtdHNwLmh0bWwwLgYIKwYB
BQUHAgIwIhogSW5mb05vdGFyeSBRdWFsaWZpZWQgVFNQIFJvb3QgQ0EwDwYDVR0T
AQH/BAUwAwEB/zAdBgNVHQ4EFgQUreGfOYBw2WgKy8ZxDUbYg6kSlF0wDQYJKoZI
hvcNAQELBQADggIBACI444pYjwS/fK3TBBVsbAkGZyhzIEmIAZ56YGbIUziPnrAO
kllMAIWYX8KAraX99uPUpjmGBW3hY5o7iD+q96JMjmm3nlRiD3/ErMlHnm3///gH
we+4ixf2IcACWzQA21+s3OexNBDlZT9sDH00WQnHvjISZ8uX0/M+4Q7AUcIshSlC
/DgcB1T2oa1X6C7HUGQuBZupTj+SI2T1raY9fgOMSLRoNI8y3fmFUuVBJugfJp5p
rb9LMcmLQcqU0pkIK3ChjunM37PoLY59hbb73uDvb99zid4eJkpVi1Yv2Flr4OQi
S/ovJMZIZdyFy1gvh7w2cgrY8wNk5robqp9oGRRo1RIVRd91OMF7/2ZJnSwgosi0
m9rFvbrvaAoCazId8D78OOEuZn5uYigqyc3oR8SaWXryHbzwPR+8IPiSExVafrn7
P54tntB7IDdv6v0ZCLvtap1Fr3USv9GSPJO4XhFoKp6OTyXXawbLVW1wG7/NeAAR
eA26UlfpJUbDSXkZhPPnFWOOXDBcXsJSB7qYeyhuzZu7/fG/CKKUwQWed5h47Czi
NXqz/KaEpKM7++suX4TLZwmoGAppnC0MTOwaFZAUDp+ABLGQdCDKOCT1mD46QlEn
hmBA/wMSAGpQ/RgeQOXboh3N6JEfPSSKrKVPLIowahGTZlOIrqbnYXKKfblX
-----END CERTIFICATE-----
