Certificate:
    Data:
        Version: 3 (0x2)
        Serial Number:
            01:00:00:00:00:00:00:00:97:6f:93:26:c7:91:d6:56
        Signature Algorithm: sha256WithRSAEncryption
        Issuer: DC = qualified-root-ca, CN = InfoNotary TSP Root, C = BG, L = Sofia, O = InfoNotary PLC, OU = Qualified TSP, organizationIdentifier = NTRBG-131276827
        Validity
            Not Before: Jun 29 15:14:32 2017 GMT
            Not After : Jun 29 15:14:32 2036 GMT
        Subject: DC = qualified-natural-ca, CN = InfoNotary Qualified Personal Sign CA, C = BG, L = Sofia, O = InfoNotary PLC, OU = Qualified TSP, organizationIdentifier = NTRBG-131276827
        Subject Public Key Info:
            Public Key Algorithm: rsaEncryption
                RSA Public-Key: (3072 bit)
                Modulus:
                    00:f5:9a:4a:6d:3e:62:83:d2:ac:ac:a4:9d:aa:64:
                    bc:0f:a8:41:3a:53:93:df:81:2f:35:82:8f:0f:a1:
                    b6:99:cd:f6:c4:89:42:78:89:d3:bf:68:c3:ad:4a:
                    37:76:fe:7e:f5:ec:a6:f7:40:46:48:a9:a7:4d:77:
                    2d:02:ba:9f:11:d5:8d:e4:89:99:8b:89:9c:a1:59:
                    0f:e7:26:af:56:5f:02:7e:15:98:8b:a9:18:ec:a4:
                    dd:4a:f7:57:73:e4:24:b3:c1:6e:a2:8b:58:25:f3:
                    7d:b2:61:05:ef:e4:bf:54:43:9e:fd:22:ab:34:fe:
                    84:b8:7a:7e:46:42:4f:e6:34:e7:99:8b:a3:da:bd:
                    c0:89:db:dc:94:97:13:ff:22:9e:ae:a7:32:52:1d:
                    65:ed:4b:f1:03:e2:6c:a2:89:76:0e:b7:0f:31:12:
                    df:0f:e2:b4:05:cd:1c:98:72:b1:20:7b:75:01:f5:
                    7e:7e:1f:2e:90:bf:7e:3d:80:e7:4f:b0:f3:98:4a:
                    4c:29:7d:ba:06:46:e4:b5:cd:63:a6:3d:dc:26:4c:
                    fc:3b:bc:22:c1:17:09:62:7b:61:50:70:2b:28:5c:
                    0e:f7:4d:e4:85:74:2c:cf:eb:2f:64:d4:7c:2c:5e:
                    d7:03:6f:72:7c:c3:e1:15:e9:43:98:be:1b:b1:bb:
                    3e:e7:0e:21:e5:91:65:67:fe:a3:bb:88:55:3c:17:
                    e7:27:81:4c:ad:f4:c4:99:ee:a3:c4:36:18:d4:df:
                    c4:7e:dd:49:ee:c4:0c:aa:86:61:4f:f5:76:0a:63:
                    66:3e:53:3c:1c:3b:1a:10:a4:b7:50:e2:3c:0c:4d:
                    15:5c:f6:29:c0:f3:6b:45:49:3b:a2:8d:40:cf:c3:
                    95:80:7f:e1:68:e3:e2:82:d9:ad:e8:07:4d:93:b9:
                    0c:c7:e9:9c:dc:fd:56:8b:3b:5c:7d:df:97:33:d3:
                    f0:9a:c3:d9:d2:26:78:9e:90:2f:9d:ba:aa:f6:80:
                    22:e9:6f:aa:d4:5a:f8:bf:6a:33
                Exponent: 65537 (0x10001)
        X509v3 extensions:
            X509v3 Key Usage: critical
                Certificate Sign, CRL Sign
            Authority Information Access: 
                OCSP - URI:http://ocsp.infonotary.com/qualified

            Subject Information Access: 
                CA Repository - URI:ldap://ldap.infonotary.com/dc=qualified-natural-ca,dc=infonotary,dc=com

            X509v3 Certificate Policies: 
                Policy: 1.3.6.1.4.1.22144.3.1
                  CPS: http://repository.infonotary.com/cps/qualified-tsp.html
                  User Notice:
                    Explicit Text: InfoNotary Qualified Personal Sign CA

            X509v3 CRL Distribution Points: 

                Full Name:
                  URI:http://crl.infonotary.com/crl/qualified-root-ca.crl

            X509v3 Basic Constraints: critical
                CA:TRUE
            X509v3 Subject Key Identifier: 
                C8:BF:B3:DE:EB:37:E6:1D:8E:EF:EE:97:D5:3B:FF:62:8A:FC:2A:32
            X509v3 Authority Key Identifier: 
                keyid:AD:E1:9F:39:80:70:D9:68:0A:CB:C6:71:0D:46:D8:83:A9:12:94:5D

    Signature Algorithm: sha256WithRSAEncryption
         68:15:b4:da:67:a7:aa:de:99:ae:7c:5b:e5:7a:a1:fb:0b:0c:
         32:5f:e9:91:5f:b4:70:b4:c5:7d:df:85:99:5f:c7:e8:f1:b8:
         08:ac:7c:a6:bd:14:88:51:af:36:bc:47:d6:19:98:f0:b4:df:
         48:4c:d3:8f:b0:7f:b2:0e:4c:bb:88:d5:22:60:25:e0:d4:33:
         60:21:c5:9e:32:68:f4:2f:ee:21:e2:bf:80:5b:23:04:5f:e7:
         05:79:4b:e7:e8:eb:36:e9:b5:f7:11:3c:36:da:54:44:12:9b:
         63:9b:33:82:be:02:69:fc:fa:2c:d6:8c:11:09:2c:27:3e:da:
         34:10:4c:b9:0c:d0:a1:06:f5:37:ca:b1:20:fa:f0:31:56:88:
         22:f4:c3:b8:8a:42:4d:56:48:33:10:b7:c2:28:13:62:5d:e3:
         ab:3c:e6:24:43:96:6d:e1:01:a5:5a:5f:5b:dd:f5:42:1c:c9:
         27:f4:ca:86:68:6f:6d:87:4e:2e:b8:d1:52:20:ea:d1:8a:00:
         30:a9:7b:0e:67:f2:4b:96:e2:b3:74:7a:f8:5f:d4:c8:2e:0f:
         3a:0f:83:a9:bf:23:f6:73:99:a3:42:be:60:9d:d3:50:fb:e8:
         f1:0b:51:9d:59:7f:31:9c:1e:e7:fa:9c:de:07:aa:e0:b5:7c:
         1e:95:ce:59:6a:f9:51:a4:97:c5:60:28:4f:85:2d:02:44:f7:
         95:e4:d2:47:1a:da:a7:da:78:c0:6e:2a:3a:94:50:95:2b:44:
         b8:df:9e:a0:81:08:da:fe:9d:c4:cc:41:1c:6d:a2:27:97:bf:
         ac:f4:8e:83:01:d3:23:fe:f8:bc:25:41:de:a2:75:97:b9:6f:
         23:8d:aa:cd:93:f7:8b:00:ea:28:97:05:4e:6d:b4:80:08:a5:
         45:00:83:20:06:44:ca:e2:80:48:17:3b:69:06:3d:d1:90:c0:
         1f:a4:fd:f1:3b:75:65:dc:71:f0:16:0f:9d:c4:dd:40:52:b0:
         12:91:e5:dc:67:68:3e:54:35:5d:6f:9e:37:71:94:f0:f4:41:
         4d:08:1f:71:f7:a2:d4:e2:1b:e0:d2:35:eb:1c:12:ef:b3:4e:
         0e:98:05:26:4d:66:71:e4:04:b9:6a:b0:78:9c:de:4d:ee:17:
         9a:bf:12:15:9a:13:fa:5b:d7:7f:c7:dc:06:9e:2f:f7:66:09:
         5d:c7:ee:0f:cb:a6:f7:dc:20:93:81:fb:11:31:6c:5e:90:06:
         80:c8:3d:74:1b:d4:9d:84:a6:05:a3:e6:47:52:18:ee:c1:9d:
         68:b7:d5:d9:18:37:75:3b:57:33:45:25:32:cc:de:bf:c7:f2:
         02:27:58:62:35:3e:5d:b2
-----BEGIN CERTIFICATE-----
MIIHYDCCBUigAwIBAgIQAQAAAAAAAACXb5Mmx5HWVjANBgkqhkiG9w0BAQsFADCB
qTEhMB8GCgmSJomT8ixkARkWEXF1YWxpZmllZC1yb290LWNhMRwwGgYDVQQDDBNJ
bmZvTm90YXJ5IFRTUCBSb290MQswCQYDVQQGDAJCRzEOMAwGA1UEBwwFU29maWEx
FzAVBgNVBAoMDkluZm9Ob3RhcnkgUExDMRYwFAYDVQQLDA1RdWFsaWZpZWQgVFNQ
MRgwFgYDVQRhDA9OVFJCRy0xMzEyNzY4MjcwHhcNMTcwNjI5MTUxNDMyWhcNMzYw
NjI5MTUxNDMyWjCBvjEkMCIGCgmSJomT8ixkARkWFHF1YWxpZmllZC1uYXR1cmFs
LWNhMS4wLAYDVQQDDCVJbmZvTm90YXJ5IFF1YWxpZmllZCBQZXJzb25hbCBTaWdu
IENBMQswCQYDVQQGEwJCRzEOMAwGA1UEBwwFU29maWExFzAVBgNVBAoMDkluZm9O
b3RhcnkgUExDMRYwFAYDVQQLDA1RdWFsaWZpZWQgVFNQMRgwFgYDVQRhDA9OVFJC
Ry0xMzEyNzY4MjcwggGiMA0GCSqGSIb3DQEBAQUAA4IBjwAwggGKAoIBgQD1mkpt
PmKD0qyspJ2qZLwPqEE6U5PfgS81go8PobaZzfbEiUJ4idO/aMOtSjd2/n717Kb3
QEZIqadNdy0Cup8R1Y3kiZmLiZyhWQ/nJq9WXwJ+FZiLqRjspN1K91dz5CSzwW6i
i1gl832yYQXv5L9UQ579Iqs0/oS4en5GQk/mNOeZi6PavcCJ29yUlxP/Ip6upzJS
HWXtS/ED4myiiXYOtw8xEt8P4rQFzRyYcrEge3UB9X5+Hy6Qv349gOdPsPOYSkwp
fboGRuS1zWOmPdwmTPw7vCLBFwlie2FQcCsoXA73TeSFdCzP6y9k1HwsXtcDb3J8
w+EV6UOYvhuxuz7nDiHlkWVn/qO7iFU8F+cngUyt9MSZ7qPENhjU38R+3UnuxAyq
hmFP9XYKY2Y+UzwcOxoQpLdQ4jwMTRVc9inA82tFSTuijUDPw5WAf+Fo4+KC2a3o
B02TuQzH6Zzc/VaLO1x935cz0/Caw9nSJniekC+duqr2gCLpb6rUWvi/ajMCAwEA
AaOCAeswggHnMA4GA1UdDwEB/wQEAwIBBjBABggrBgEFBQcBAQQ0MDIwMAYIKwYB
BQUHMAGGJGh0dHA6Ly9vY3NwLmluZm9ub3RhcnkuY29tL3F1YWxpZmllZDBjBggr
BgEFBQcBCwRXMFUwUwYIKwYBBQUHMAWGR2xkYXA6Ly9sZGFwLmluZm9ub3Rhcnku
Y29tL2RjPXF1YWxpZmllZC1uYXR1cmFsLWNhLGRjPWluZm9ub3RhcnksZGM9Y29t
MIGWBgNVHSAEgY4wgYswgYgGCisGAQQBga0AAwEwejBDBggrBgEFBQcCARY3aHR0
cDovL3JlcG9zaXRvcnkuaW5mb25vdGFyeS5jb20vY3BzL3F1YWxpZmllZC10c3Au
aHRtbDAzBggrBgEFBQcCAjAnGiVJbmZvTm90YXJ5IFF1YWxpZmllZCBQZXJzb25h
bCBTaWduIENBMEQGA1UdHwQ9MDswOaA3oDWGM2h0dHA6Ly9jcmwuaW5mb25vdGFy
eS5jb20vY3JsL3F1YWxpZmllZC1yb290LWNhLmNybDAPBgNVHRMBAf8EBTADAQH/
MB0GA1UdDgQWBBTIv7Pe6zfmHY7v7pfVO/9iivwqMjAfBgNVHSMEGDAWgBSt4Z85
gHDZaArLxnENRtiDqRKUXTANBgkqhkiG9w0BAQsFAAOCAgEAaBW02menqt6Zrnxb
5Xqh+wsMMl/pkV+0cLTFfd+FmV/H6PG4CKx8pr0UiFGvNrxH1hmY8LTfSEzTj7B/
sg5Mu4jVImAl4NQzYCHFnjJo9C/uIeK/gFsjBF/nBXlL5+jrNum19xE8NtpURBKb
Y5szgr4Cafz6LNaMEQksJz7aNBBMuQzQoQb1N8qxIPrwMVaIIvTDuIpCTVZIMxC3
wigTYl3jqzzmJEOWbeEBpVpfW931QhzJJ/TKhmhvbYdOLrjRUiDq0YoAMKl7Dmfy
S5bis3R6+F/UyC4POg+Dqb8j9nOZo0K+YJ3TUPvo8QtRnVl/MZwe5/qc3geq4LV8
HpXOWWr5UaSXxWAoT4UtAkT3leTSRxrap9p4wG4qOpRQlStEuN+eoIEI2v6dxMxB
HG2iJ5e/rPSOgwHTI/74vCVB3qJ1l7lvI42qzZP3iwDqKJcFTm20gAilRQCDIAZE
yuKASBc7aQY90ZDAH6T98Tt1Zdxx8BYPncTdQFKwEpHl3GdoPlQ1XW+eN3GU8PRB
TQgfcfei1OIb4NI16xwS77NODpgFJk1mceQEuWqweJzeTe4Xmr8SFZoT+lvXf8fc
Bp4v92YJXcfuD8um99wgk4H7ETFsXpAGgMg9dBvUnYSmBaPmR1IY7sGdaLfV2Rg3
dTtXM0UlMszev8fyAidYYjU+XbI=
-----END CERTIFICATE-----
