Certificate:
    Data:
        Version: 3 (0x2)
        Serial Number:
            01:00:00:00:00:00:00:00:34:f6:dc:ed:ac:23:71:36
        Signature Algorithm: sha256WithRSAEncryption
        Issuer: DC = qualified-root-ca, CN = InfoNotary TSP Root, C = BG, L = Sofia, O = InfoNotary PLC, OU = Qualified TSP, organizationIdentifier = NTRBG-131276827
        Validity
            Not Before: Jun 29 15:26:47 2017 GMT
            Not After : Jun 29 15:26:47 2036 GMT
        Subject: DC = qualified-validation-ca, CN = InfoNotary Qualified Validation Services CA, C = BG, L = Sofia, O = InfoNotary PLC, OU = Qualified TSP, organizationIdentifier = NTRBG-131276827
        Subject Public Key Info:
            Public Key Algorithm: rsaEncryption
                RSA Public-Key: (3072 bit)
                Modulus:
                    00:ab:3b:be:1f:66:ff:0f:31:24:00:0c:fc:5c:c7:
                    a4:7b:09:b2:cd:18:00:71:f7:0f:6a:7b:32:ab:4a:
                    f8:6d:a1:8a:74:3e:d4:d4:1f:5f:80:7f:dd:d8:9a:
                    df:c8:22:ca:d6:10:b3:6f:1c:6f:03:87:ab:83:e9:
                    85:04:e2:a5:ea:52:37:7d:f0:1a:ea:23:52:79:42:
                    ac:3c:98:55:9f:66:b9:69:de:f8:00:e2:33:d5:d9:
                    57:4f:31:f9:67:bc:8a:cc:cd:6c:22:c7:f6:ec:44:
                    89:15:bc:e2:81:51:87:bd:99:f2:dd:b8:91:41:22:
                    f5:fc:ad:12:39:40:7e:7d:20:65:c7:cf:71:eb:9a:
                    a5:56:99:77:11:02:44:e5:dc:6d:6b:fc:f5:01:26:
                    59:f6:5a:56:5a:ed:a8:d9:e8:d4:fd:a0:68:d8:d0:
                    55:f3:42:64:bc:e4:fa:28:f6:57:83:fb:e2:95:86:
                    cc:00:6f:26:92:b9:b9:09:48:b1:e9:59:7c:ce:34:
                    76:e1:06:67:28:01:b2:45:d1:b6:f7:b7:52:b6:55:
                    b7:0b:5c:0a:d7:66:bb:2e:e4:1b:ad:6e:cb:a3:72:
                    88:f1:e3:1c:f0:b2:60:c0:41:75:a5:f0:c9:c6:cd:
                    bd:91:2a:30:dd:22:8f:d2:b4:ba:f7:57:6e:62:22:
                    84:48:9a:6a:12:a8:08:ce:da:e6:6d:d8:c3:32:f9:
                    06:17:cf:c4:0f:89:b0:37:d4:1e:96:7f:1c:80:be:
                    aa:a7:bf:48:d5:aa:27:d9:ab:0c:af:be:48:a6:b8:
                    39:c3:c7:29:24:4e:72:59:bd:66:af:6f:3a:f4:1a:
                    18:36:64:99:91:fa:e6:c7:53:b2:ee:9e:a2:83:3f:
                    dd:8a:0b:b2:4b:e0:b8:65:84:a2:61:18:aa:0e:26:
                    ac:94:f6:86:19:f6:e7:97:5d:a1:82:b9:7a:eb:0f:
                    22:db:a8:5e:bf:2b:1d:45:ad:e9:0c:e1:f0:19:ba:
                    bb:1d:b7:84:ba:6c:b8:e1:e5:ed
                Exponent: 65537 (0x10001)
        X509v3 extensions:
            X509v3 Key Usage: critical
                Certificate Sign, CRL Sign
            Authority Information Access: 
                OCSP - URI:http://ocsp.infonotary.com/qualified

            Subject Information Access: 
                CA Repository - URI:ldap://ldap.infonotary.com/dc=qualified-validation-ca,dc=infonotary,dc=com

            X509v3 Certificate Policies: 
                Policy: 1.3.6.1.4.1.22144.3.5
                  CPS: http://repository.infonotary.com/cps/qualified-tsp.html
                  User Notice:
                    Explicit Text: InfoNotary Qualified Validation Services CA

            X509v3 CRL Distribution Points: 

                Full Name:
                  URI:http://crl.infonotary.com/crl/qualified-root-ca.crl

            X509v3 Basic Constraints: critical
                CA:TRUE
            X509v3 Subject Key Identifier: 
                07:F2:E4:1E:ED:59:F9:21:62:05:28:03:5F:78:D4:1C:AB:A3:57:E4
            X509v3 Authority Key Identifier: 
                keyid:AD:E1:9F:39:80:70:D9:68:0A:CB:C6:71:0D:46:D8:83:A9:12:94:5D

    Signature Algorithm: sha256WithRSAEncryption
         87:0f:5a:37:bf:b9:a9:5e:66:33:c4:a7:6c:97:8c:59:80:31:
         fe:11:e4:60:29:ee:73:29:a7:7b:aa:d9:04:fa:6b:b5:a7:a3:
         c0:fb:49:71:05:3a:d1:62:10:cc:31:d5:ff:c3:70:ab:37:91:
         f4:06:7c:8a:c3:58:1a:f8:0c:a4:55:c7:1b:89:bc:94:09:d8:
         57:1f:cc:36:e0:24:ef:c3:f2:c2:0f:b4:1f:c8:e5:21:e5:a8:
         bc:04:55:1d:d2:6f:25:f2:10:28:b7:4c:cd:aa:da:1f:8e:2b:
         78:6b:21:d3:77:6d:b4:7f:64:82:82:79:dc:1c:f0:16:fc:0b:
         73:3c:7d:f2:ae:1f:2f:27:02:8c:8f:3d:69:9d:cd:18:59:0a:
         76:ce:07:c7:56:df:44:32:e1:7b:c8:2d:a8:d8:10:5c:08:cf:
         e8:90:6e:91:a5:81:e1:bb:9f:35:80:7d:33:e4:7f:c3:5d:e5:
         34:80:ba:fd:91:56:9b:f4:8c:a9:23:ee:0f:e8:90:9f:31:8e:
         cb:dd:4b:63:4b:d8:d5:6c:58:f4:9a:b8:81:69:39:d7:64:be:
         37:89:34:00:25:ba:12:d6:71:de:24:f2:cc:bc:c4:bc:11:6b:
         de:66:57:60:02:2b:7d:41:99:b8:12:e4:4d:e0:f1:99:ff:6a:
         b0:f7:86:81:bd:0a:59:12:ce:cd:bb:8d:b1:64:23:08:cc:99:
         70:81:10:b9:19:e5:ff:61:73:42:77:90:44:2d:b2:8e:a9:52:
         be:d6:2e:fe:ff:5b:07:fe:6a:70:6b:39:bf:49:a9:13:c7:7d:
         54:7b:1a:eb:3f:9c:52:a0:2f:a3:a7:d4:3c:c9:b5:e0:84:93:
         62:79:35:77:7e:f1:a8:f6:b0:4e:c6:29:1f:38:4c:82:5a:3e:
         8f:bb:80:4b:60:5a:f3:ee:ce:a1:09:59:5c:de:eb:d7:cd:14:
         93:64:f1:9a:dd:7b:2b:f7:d7:22:59:35:2d:4b:a5:45:dd:b1:
         d5:9f:cc:46:0a:0a:5a:2a:c4:38:f1:bf:84:64:c9:b8:c8:4d:
         3e:3a:cd:cb:b5:be:bf:a7:45:46:0e:90:4d:d9:d2:70:4e:de:
         78:89:3f:10:89:49:50:02:74:25:2c:ba:e4:2a:1f:69:58:87:
         2b:f1:5b:2f:82:85:30:a7:59:5d:ba:ef:4e:bc:9c:c3:99:44:
         41:a1:44:a3:54:8f:cf:c9:49:4a:fc:6e:e5:77:a4:39:dd:5d:
         c5:cb:4a:47:f5:4a:c7:0a:d6:08:c7:23:6e:89:89:8f:6e:d0:
         9b:fe:01:09:5e:2d:98:10:f2:50:10:a3:e3:43:c8:13:10:e0:
         fc:b4:89:e9:0e:77:ad:cb
-----BEGIN CERTIFICATE-----
MIIHczCCBVugAwIBAgIQAQAAAAAAAAA09tztrCNxNjANBgkqhkiG9w0BAQsFADCB
qTEhMB8GCgmSJomT8ixkARkWEXF1YWxpZmllZC1yb290LWNhMRwwGgYDVQQDDBNJ
bmZvTm90YXJ5IFRTUCBSb290MQswCQYDVQQGDAJCRzEOMAwGA1UEBwwFU29maWEx
FzAVBgNVBAoMDkluZm9Ob3RhcnkgUExDMRYwFAYDVQQLDA1RdWFsaWZpZWQgVFNQ
MRgwFgYDVQRhDA9OVFJCRy0xMzEyNzY4MjcwHhcNMTcwNjI5MTUyNjQ3WhcNMzYw
NjI5MTUyNjQ3WjCBxzEnMCUGCgmSJomT8ixkARkWF3F1YWxpZmllZC12YWxpZGF0
aW9uLWNhMTQwMgYDVQQDDCtJbmZvTm90YXJ5IFF1YWxpZmllZCBWYWxpZGF0aW9u
IFNlcnZpY2VzIENBMQswCQYDVQQGEwJCRzEOMAwGA1UEBwwFU29maWExFzAVBgNV
BAoMDkluZm9Ob3RhcnkgUExDMRYwFAYDVQQLDA1RdWFsaWZpZWQgVFNQMRgwFgYD
VQRhDA9OVFJCRy0xMzEyNzY4MjcwggGiMA0GCSqGSIb3DQEBAQUAA4IBjwAwggGK
AoIBgQCrO74fZv8PMSQADPxcx6R7CbLNGABx9w9qezKrSvhtoYp0PtTUH1+Af93Y
mt/IIsrWELNvHG8Dh6uD6YUE4qXqUjd98BrqI1J5Qqw8mFWfZrlp3vgA4jPV2VdP
MflnvIrMzWwix/bsRIkVvOKBUYe9mfLduJFBIvX8rRI5QH59IGXHz3HrmqVWmXcR
AkTl3G1r/PUBJln2WlZa7ajZ6NT9oGjY0FXzQmS85Poo9leD++KVhswAbyaSubkJ
SLHpWXzONHbhBmcoAbJF0bb3t1K2VbcLXArXZrsu5Butbsujcojx4xzwsmDAQXWl
8MnGzb2RKjDdIo/StLr3V25iIoRImmoSqAjO2uZt2MMy+QYXz8QPibA31B6WfxyA
vqqnv0jVqifZqwyvvkimuDnDxykkTnJZvWavbzr0Ghg2ZJmR+ubHU7LunqKDP92K
C7JL4LhlhKJhGKoOJqyU9oYZ9ueXXaGCuXrrDyLbqF6/Kx1FrekM4fAZursdt4S6
bLjh5e0CAwEAAaOCAfUwggHxMA4GA1UdDwEB/wQEAwIBBjBABggrBgEFBQcBAQQ0
MDIwMAYIKwYBBQUHMAGGJGh0dHA6Ly9vY3NwLmluZm9ub3RhcnkuY29tL3F1YWxp
ZmllZDBmBggrBgEFBQcBCwRaMFgwVgYIKwYBBQUHMAWGSmxkYXA6Ly9sZGFwLmlu
Zm9ub3RhcnkuY29tL2RjPXF1YWxpZmllZC12YWxpZGF0aW9uLWNhLGRjPWluZm9u
b3RhcnksZGM9Y29tMIGdBgNVHSAEgZUwgZIwgY8GCisGAQQBga0AAwUwgYAwQwYI
KwYBBQUHAgEWN2h0dHA6Ly9yZXBvc2l0b3J5LmluZm9ub3RhcnkuY29tL2Nwcy9x
dWFsaWZpZWQtdHNwLmh0bWwwOQYIKwYBBQUHAgIwLRorSW5mb05vdGFyeSBRdWFs
aWZpZWQgVmFsaWRhdGlvbiBTZXJ2aWNlcyBDQTBEBgNVHR8EPTA7MDmgN6A1hjNo
dHRwOi8vY3JsLmluZm9ub3RhcnkuY29tL2NybC9xdWFsaWZpZWQtcm9vdC1jYS5j
cmwwDwYDVR0TAQH/BAUwAwEB/zAdBgNVHQ4EFgQUB/LkHu1Z+SFiBSgDX3jUHKuj
V+QwHwYDVR0jBBgwFoAUreGfOYBw2WgKy8ZxDUbYg6kSlF0wDQYJKoZIhvcNAQEL
BQADggIBAIcPWje/ualeZjPEp2yXjFmAMf4R5GAp7nMpp3uq2QT6a7Wno8D7SXEF
OtFiEMwx1f/DcKs3kfQGfIrDWBr4DKRVxxuJvJQJ2FcfzDbgJO/D8sIPtB/I5SHl
qLwEVR3SbyXyECi3TM2q2h+OK3hrIdN3bbR/ZIKCedwc8Bb8C3M8ffKuHy8nAoyP
PWmdzRhZCnbOB8dW30Qy4XvILajYEFwIz+iQbpGlgeG7nzWAfTPkf8Nd5TSAuv2R
Vpv0jKkj7g/okJ8xjsvdS2NL2NVsWPSauIFpOddkvjeJNAAluhLWcd4k8sy8xLwR
a95mV2ACK31BmbgS5E3g8Zn/arD3hoG9ClkSzs27jbFkIwjMmXCBELkZ5f9hc0J3
kEQtso6pUr7WLv7/Wwf+anBrOb9JqRPHfVR7Gus/nFKgL6On1DzJteCEk2J5NXd+
8aj2sE7GKR84TIJaPo+7gEtgWvPuzqEJWVze69fNFJNk8Zrdeyv31yJZNS1LpUXd
sdWfzEYKCloqxDjxv4RkybjITT46zcu1vr+nRUYOkE3Z0nBO3niJPxCJSVACdCUs
uuQqH2lYhyvxWy+ChTCnWV267068nMOZREGhRKNUj8/JSUr8buV3pDndXcXLSkf1
SscK1gjHI26JiY9u0Jv+AQleLZgQ8lAQo+NDyBMQ4Py0iekOd63L
-----END CERTIFICATE-----
